(dp1
S'echo_cred2'
p2
ccopy_reg
_reconstructor
p3
(ctwisted.plugin
CachedDropin
p4
c__builtin__
object
p5
NtRp6
(dp7
S'moduleName'
p8
S'twisted.plugins.echo_cred2'
p9
sS'description'
p10
NsS'plugins'
p11
(lp12
sbsS'echo_cred_plugin'
p13
g3
(g4
g5
NtRp14
(dp15
g8
S'twisted.plugins.echo_cred_plugin'
p16
sg10
Nsg11
(lp17
g3
(ctwisted.plugin
CachedPlugin
p18
g5
NtRp19
(dp20
S'provided'
p21
(lp22
ctwisted.application.service
IServiceMaker
p23
actwisted.plugin
IPlugin
p24
asS'dropin'
p25
g14
sS'name'
p26
S'serviceMaker'
p27
sg10
Nsbasbs.